; Function Attrs: mustprogress uwtable
define noundef zeroext i1 @_ZN6google8protobuf2io16GzipOutputStream5CloseEv(ptr noundef nonnull align 8 dereferenceable(168) %this) local_unnamed_addr #3 align 2 {
entry:
  %zerror_ = getelementptr inbounds i8, ptr %this, i64 144
  %0 = load i32, ptr %zerror_, align 8
  switch i32 %0, label %return [
    i32 0, label %do.body.preheader
    i32 -5, label %do.body.preheader
  ]

do.body.preheader:                                ; preds = %entry, %entry
  br label %do.body

do.body:                                          ; preds = %do.body.preheader, %do.body
  %call = tail call noundef i32 @_ZN6google8protobuf2io16GzipOutputStream7DeflateEi(ptr noundef nonnull align 8 dereferenceable(168) %this, i32 noundef 4)
  store i32 %call, ptr %zerror_, align 8
  %cmp6 = icmp eq i32 %call, 0
  br i1 %cmp6, label %do.body, label %do.end, !llvm.loop !6

do.end:                                           ; preds = %do.body
  %zcontext_ = getelementptr inbounds i8, ptr %this, i64 32
  %call7 = tail call i32 @deflateEnd(ptr noundef nonnull %zcontext_)
  %cmp10 = icmp eq i32 %call7, 0
  store i32 1, ptr %zerror_, align 8
  br label %return

return:                                           ; preds = %entry, %do.end
  %retval.0 = phi i1 [ %cmp10, %do.end ], [ false, %entry ]
  ret i1 %retval.0
}